target datalayout = "e-m:e-p270:32:32-p271:32:32-p272:64:64-i64:64-i128:128-f80:128-n8:16:32:64-S128"
target triple = "x86_64-pc-linux-gnu"

%"struct.duckdb_libpgquery::PGDefElem" = type { i32, ptr, ptr, ptr, i32, i32 }

; Function Attrs: mustprogress uwtable
define hidden noundef ptr @_ZN17duckdb_libpgquery11makeDefElemEPKcPNS_6PGNodeEi(ptr noundef %0, ptr noundef %1, i32 noundef %2) #0 {
  %4 = alloca ptr, align 8
  %5 = alloca ptr, align 8
  %6 = alloca i32, align 4
  %7 = alloca ptr, align 8
  store ptr %0, ptr %4, align 8, !tbaa !23
  store ptr %1, ptr %5, align 8, !tbaa !10
  store i32 %2, ptr %6, align 4, !tbaa !12
  call void @llvm.lifetime.start.p0(i64 8, ptr %7) #3
  %8 = call noundef ptr @_ZN17duckdb_libpgquery7newNodeEmNS_9PGNodeTagE(i64 noundef 40, i32 noundef 376)
  store ptr %8, ptr %7, align 8, !tbaa !58
  %9 = load ptr, ptr %7, align 8, !tbaa !58
  %10 = getelementptr inbounds nuw %"struct.duckdb_libpgquery::PGDefElem", ptr %9, i32 0, i32 1
  store ptr null, ptr %10, align 8, !tbaa !60
  %11 = load ptr, ptr %4, align 8, !tbaa !23
  %12 = load ptr, ptr %7, align 8, !tbaa !58
  %13 = getelementptr inbounds nuw %"struct.duckdb_libpgquery::PGDefElem", ptr %12, i32 0, i32 2
  store ptr %11, ptr %13, align 8, !tbaa !63
  %14 = load ptr, ptr %5, align 8, !tbaa !10
  %15 = load ptr, ptr %7, align 8, !tbaa !58
  %16 = getelementptr inbounds nuw %"struct.duckdb_libpgquery::PGDefElem", ptr %15, i32 0, i32 3
  store ptr %14, ptr %16, align 8, !tbaa !64
  %17 = load ptr, ptr %7, align 8, !tbaa !58
  %18 = getelementptr inbounds nuw %"struct.duckdb_libpgquery::PGDefElem", ptr %17, i32 0, i32 4
  store i32 0, ptr %18, align 8, !tbaa !65
  %19 = load i32, ptr %6, align 4, !tbaa !12
  %20 = load ptr, ptr %7, align 8, !tbaa !58
  %21 = getelementptr inbounds nuw %"struct.duckdb_libpgquery::PGDefElem", ptr %20, i32 0, i32 5
  store i32 %19, ptr %21, align 4, !tbaa !66
  %22 = load ptr, ptr %7, align 8, !tbaa !58
  call void @llvm.lifetime.end.p0(i64 8, ptr %7) #3
  ret ptr %22
}