; Function Attrs: mustprogress uwtable
define hidden noundef ptr @_ZN17duckdb_libpgquery11makeDefElemEPKcPNS_6PGNodeEi(ptr noundef %0, ptr noundef %1, i32 noundef %2) local_unnamed_addr #0 {
  %4 = tail call noundef ptr @_ZN17duckdb_libpgquery7newNodeEmNS_9PGNodeTagE(i64 noundef 40, i32 noundef 376)
  %5 = getelementptr inbounds nuw i8, ptr %4, i64 8
  store ptr null, ptr %5, align 8, !tbaa !43
  %6 = getelementptr inbounds nuw i8, ptr %4, i64 16
  store ptr %0, ptr %6, align 8, !tbaa !46
  %7 = getelementptr inbounds nuw i8, ptr %4, i64 24
  store ptr %1, ptr %7, align 8, !tbaa !47
  %8 = getelementptr inbounds nuw i8, ptr %4, i64 32
  store i32 0, ptr %8, align 8, !tbaa !48
  %9 = getelementptr inbounds nuw i8, ptr %4, i64 36
  store i32 %2, ptr %9, align 4, !tbaa !49
  ret ptr %4
}